target datalayout = "e-m:e-p270:32:32-p271:32:32-p272:64:64-i64:64-i128:128-f80:128-n8:16:32:64-S128"
target triple = "x86_64-pc-linux-gnu"

%"class.casadi::Sparsity" = type { %"class.casadi::SharedObject" }
%"class.casadi::SharedObject" = type { %"class.casadi::GenericShared" }
%"class.casadi::GenericShared" = type { ptr }
%"class.casadi::MXNode" = type { %"class.casadi::SharedObjectInternal", i64, %"class.std::vector", %"class.casadi::Sparsity" }
%"class.casadi::SharedObjectInternal" = type { %"class.casadi::GenericSharedInternal", i64 }
%"class.casadi::GenericSharedInternal" = type { ptr, ptr }
%"class.std::vector" = type { %"struct.std::_Vector_base" }
%"struct.std::_Vector_base" = type { %"struct.std::_Vector_base<casadi::MX, std::allocator<casadi::MX>>::_Vector_impl" }
%"struct.std::_Vector_base<casadi::MX, std::allocator<casadi::MX>>::_Vector_impl" = type { %"struct.std::_Vector_base<casadi::MX, std::allocator<casadi::MX>>::_Vector_impl_data" }
%"struct.std::_Vector_base<casadi::MX, std::allocator<casadi::MX>>::_Vector_impl_data" = type { ptr, ptr, ptr }
%"class.casadi::MX" = type { %"class.casadi::SharedObject" }

@.str.5 = private unnamed_addr constant [74 x i8] c"vector::_M_range_check: __n (which is %zu) >= this->size() (which is %zu)\00", align 1

; Function Attrs: mustprogress nounwind uwtable
define linkonce_odr hidden noundef i64 @_ZNKSt6vectorIN6casadi2MXESaIS1_EE4sizeEv(ptr noundef nonnull align 8 dereferenceable(24) %0) #6 comdat align 2 {
  %2 = alloca ptr, align 8
  store ptr %0, ptr %2, align 8, !tbaa !46
  %3 = load ptr, ptr %2, align 8
  %4 = getelementptr inbounds nuw %"struct.std::_Vector_base", ptr %3, i32 0, i32 0
  %5 = getelementptr inbounds nuw %"struct.std::_Vector_base<casadi::MX, std::allocator<casadi::MX>>::_Vector_impl_data", ptr %4, i32 0, i32 1
  %6 = load ptr, ptr %5, align 8, !tbaa !74
  %7 = getelementptr inbounds nuw %"struct.std::_Vector_base", ptr %3, i32 0, i32 0
  %8 = getelementptr inbounds nuw %"struct.std::_Vector_base<casadi::MX, std::allocator<casadi::MX>>::_Vector_impl_data", ptr %7, i32 0, i32 0
  %9 = load ptr, ptr %8, align 8, !tbaa !48
  %10 = ptrtoint ptr %6 to i64
  %11 = ptrtoint ptr %9 to i64
  %12 = sub i64 %10, %11
  %13 = sdiv exact i64 %12, 8
  ret i64 %13
}

; Function Attrs: inlinehint mustprogress nounwind uwtable
define linkonce_odr hidden noundef nonnull align 8 dereferenceable(8) ptr @_ZNK6casadi17SparsityInterfaceINS_2MXEE4selfEv(ptr noundef nonnull align 1 dereferenceable(1) %0) #13 comdat align 2 {
  %2 = alloca ptr, align 8
  store ptr %0, ptr %2, align 8, !tbaa !92
  %3 = load ptr, ptr %2, align 8
  ret ptr %3
}

; Function Attrs: mustprogress nounwind uwtable
define linkonce_odr hidden noundef nonnull align 8 dereferenceable(8) ptr @_ZNKSt6vectorIN6casadi2MXESaIS1_EEixEm(ptr noundef nonnull align 8 dereferenceable(24) %0, i64 noundef %1) #6 comdat align 2 {
  %3 = alloca ptr, align 8
  %4 = alloca i64, align 8
  store ptr %0, ptr %3, align 8, !tbaa !46
  store i64 %1, ptr %4, align 8, !tbaa !24
  %5 = load ptr, ptr %3, align 8
  %6 = getelementptr inbounds nuw %"struct.std::_Vector_base", ptr %5, i32 0, i32 0
  %7 = getelementptr inbounds nuw %"struct.std::_Vector_base<casadi::MX, std::allocator<casadi::MX>>::_Vector_impl_data", ptr %6, i32 0, i32 0
  %8 = load ptr, ptr %7, align 8, !tbaa !48
  %9 = load i64, ptr %4, align 8, !tbaa !24
  %10 = getelementptr inbounds nuw %"class.casadi::MX", ptr %8, i64 %9
  ret ptr %10
}

; Function Attrs: mustprogress uwtable
define linkonce_odr hidden void @_ZNKSt6vectorIN6casadi2MXESaIS1_EE14_M_range_checkEm(ptr noundef nonnull align 8 dereferenceable(24) %0, i64 noundef %1) #4 comdat align 2 {
  %3 = alloca ptr, align 8
  %4 = alloca i64, align 8
  store ptr %0, ptr %3, align 8, !tbaa !46
  store i64 %1, ptr %4, align 8, !tbaa !24
  %5 = load ptr, ptr %3, align 8
  %6 = load i64, ptr %4, align 8, !tbaa !24
  %7 = call noundef i64 @_ZNKSt6vectorIN6casadi2MXESaIS1_EE4sizeEv(ptr noundef nonnull align 8 dereferenceable(24) %5) #3
  %8 = icmp uge i64 %6, %7
  br i1 %8, label %9, label %12

9:                                                ; preds = %2
  %10 = load i64, ptr %4, align 8, !tbaa !24
  %11 = call noundef i64 @_ZNKSt6vectorIN6casadi2MXESaIS1_EE4sizeEv(ptr noundef nonnull align 8 dereferenceable(24) %5) #3
  call void (ptr, ...) @_ZSt24__throw_out_of_range_fmtPKcz(ptr noundef @.str.5, i64 noundef %10, i64 noundef %11) #17
  unreachable

12:                                               ; preds = %2
  ret void
}

; Function Attrs: mustprogress nounwind uwtable
define linkonce_odr hidden noundef double @_ZN6casadi12casadi_vfminIdEET_PKS1_xS1_(ptr noundef %0, i64 noundef %1, double noundef %2) #6 comdat {
  %4 = alloca ptr, align 8
  %5 = alloca i64, align 8
  %6 = alloca double, align 8
  %7 = alloca i64, align 8
  store ptr %0, ptr %4, align 8, !tbaa !32
  store i64 %1, ptr %5, align 8, !tbaa !36
  store double %2, ptr %6, align 8, !tbaa !34
  call void @llvm.lifetime.start.p0(i64 8, ptr %7) #3
  store i64 0, ptr %7, align 8, !tbaa !36
  br label %8

8:                                                ; preds = %19, %3
  %9 = load i64, ptr %7, align 8, !tbaa !36
  %10 = load i64, ptr %5, align 8, !tbaa !36
  %11 = icmp slt i64 %9, %10
  br i1 %11, label %12, label %22

12:                                               ; preds = %8
  %13 = load double, ptr %6, align 8, !tbaa !34
  %14 = load ptr, ptr %4, align 8, !tbaa !32
  %15 = load i64, ptr %7, align 8, !tbaa !36
  %16 = getelementptr inbounds double, ptr %14, i64 %15
  %17 = load double, ptr %16, align 8, !tbaa !34
  %18 = call double @llvm.minnum.f64(double %13, double %17)
  store double %18, ptr %6, align 8, !tbaa !34
  br label %19

19:                                               ; preds = %12
  %20 = load i64, ptr %7, align 8, !tbaa !36
  %21 = add nsw i64 %20, 1
  store i64 %21, ptr %7, align 8, !tbaa !36
  br label %8, !llvm.loop !94

22:                                               ; preds = %8
  %23 = load double, ptr %6, align 8, !tbaa !34
  call void @llvm.lifetime.end.p0(i64 8, ptr %7) #3
  ret double %23
}

; Function Attrs: mustprogress nounwind uwtable
define linkonce_odr hidden noundef double @_ZNSt14numeric_limitsIdE8infinityEv() #6 comdat align 2 {
  ret double 0x7FF0000000000000
}

; Function Attrs: mustprogress uwtable
define linkonce_odr hidden noundef nonnull align 8 dereferenceable(8) ptr @_ZNK6casadi13GenericMatrixINS_2MXEE8sparsityEv(ptr noundef nonnull align 1 dereferenceable(1) %0) #4 comdat align 2 {
  %2 = alloca ptr, align 8
  store ptr %0, ptr %2, align 8, !tbaa !40
  %3 = load ptr, ptr %2, align 8
  %4 = call noundef nonnull align 8 dereferenceable(8) ptr @_ZNK6casadi17SparsityInterfaceINS_2MXEE4selfEv(ptr noundef nonnull align 1 dereferenceable(1) %3)
  %5 = call noundef nonnull align 8 dereferenceable(8) ptr @_ZNK6casadi2MX8sparsityEv(ptr noundef nonnull align 8 dereferenceable(8) %4)
  ret ptr %5
}

; Function Attrs: mustprogress uwtable
define linkonce_odr hidden noundef nonnull align 8 dereferenceable(8) ptr @_ZNKSt6vectorIN6casadi2MXESaIS1_EE2atEm(ptr noundef nonnull align 8 dereferenceable(24) %0, i64 noundef %1) #4 comdat align 2 {
  %3 = alloca ptr, align 8
  %4 = alloca i64, align 8
  store ptr %0, ptr %3, align 8, !tbaa !46
  store i64 %1, ptr %4, align 8, !tbaa !24
  %5 = load ptr, ptr %3, align 8
  %6 = load i64, ptr %4, align 8, !tbaa !24
  call void @_ZNKSt6vectorIN6casadi2MXESaIS1_EE14_M_range_checkEm(ptr noundef nonnull align 8 dereferenceable(24) %5, i64 noundef %6)
  %7 = load i64, ptr %4, align 8, !tbaa !24
  %8 = call noundef nonnull align 8 dereferenceable(8) ptr @_ZNKSt6vectorIN6casadi2MXESaIS1_EEixEm(ptr noundef nonnull align 8 dereferenceable(24) %5, i64 noundef %7) #3
  ret ptr %8
}

; Function Attrs: mustprogress uwtable
define linkonce_odr hidden noundef double @_ZN6casadi11casadi_mminIdEET_PKS1_xx(ptr noundef %0, i64 noundef %1, i64 noundef %2) #4 comdat {
  %4 = alloca double, align 8
  %5 = alloca ptr, align 8
  %6 = alloca i64, align 8
  %7 = alloca i64, align 8
  %8 = alloca double, align 8
  %9 = alloca i32, align 4
  store ptr %0, ptr %5, align 8, !tbaa !32
  store i64 %1, ptr %6, align 8, !tbaa !36
  store i64 %2, ptr %7, align 8, !tbaa !36
  call void @llvm.lifetime.start.p0(i64 8, ptr %8) #3
  %10 = load i64, ptr %7, align 8, !tbaa !36
  %11 = icmp ne i64 %10, 0
  %12 = call noundef double @_ZNSt14numeric_limitsIdE8infinityEv() #3
  %13 = select i1 %11, double %12, double 0.000000e+00
  store double %13, ptr %8, align 8, !tbaa !34
  %14 = load ptr, ptr %5, align 8, !tbaa !32
  %15 = icmp ne ptr %14, null
  br i1 %15, label %18, label %16

16:                                               ; preds = %3
  %17 = load double, ptr %8, align 8, !tbaa !34
  store double %17, ptr %4, align 8
  store i32 1, ptr %9, align 4
  br label %23

18:                                               ; preds = %3
  %19 = load ptr, ptr %5, align 8, !tbaa !32
  %20 = load i64, ptr %6, align 8, !tbaa !36
  %21 = load double, ptr %8, align 8, !tbaa !34
  %22 = call noundef double @_ZN6casadi12casadi_vfminIdEET_PKS1_xS1_(ptr noundef %19, i64 noundef %20, double noundef %21)
  store double %22, ptr %4, align 8
  store i32 1, ptr %9, align 4
  br label %23

23:                                               ; preds = %18, %16
  call void @llvm.lifetime.end.p0(i64 8, ptr %8) #3
  %24 = load double, ptr %4, align 8
  ret double %24
}

; Function Attrs: mustprogress uwtable
define linkonce_odr hidden noundef zeroext i1 @_ZNK6casadi13GenericMatrixINS_2MXEE8is_denseEv(ptr noundef nonnull align 1 dereferenceable(1) %0) #4 comdat align 2 {
  %2 = alloca ptr, align 8
  store ptr %0, ptr %2, align 8, !tbaa !40
  %3 = load ptr, ptr %2, align 8
  %4 = call noundef nonnull align 8 dereferenceable(8) ptr @_ZNK6casadi13GenericMatrixINS_2MXEE8sparsityEv(ptr noundef nonnull align 1 dereferenceable(1) %3)
  %5 = call noundef zeroext i1 @_ZNK6casadi8Sparsity8is_denseEv(ptr noundef nonnull align 8 dereferenceable(8) %4)
  ret i1 %5
}

; Function Attrs: mustprogress uwtable
define linkonce_odr hidden noundef i64 @_ZNK6casadi13GenericMatrixINS_2MXEE3nnzEv(ptr noundef nonnull align 1 dereferenceable(1) %0) #4 comdat align 2 {
  %2 = alloca ptr, align 8
  store ptr %0, ptr %2, align 8, !tbaa !40
  %3 = load ptr, ptr %2, align 8
  %4 = call noundef nonnull align 8 dereferenceable(8) ptr @_ZNK6casadi13GenericMatrixINS_2MXEE8sparsityEv(ptr noundef nonnull align 1 dereferenceable(1) %3)
  %5 = call noundef i64 @_ZNK6casadi8Sparsity3nnzEv(ptr noundef nonnull align 8 dereferenceable(8) %4)
  ret i64 %5
}

; Function Attrs: mustprogress uwtable
define linkonce_odr hidden noundef nonnull align 8 dereferenceable(8) ptr @_ZNK6casadi6MXNode3depEx(ptr noundef nonnull align 8 dereferenceable(64) %0, i64 noundef %1) #4 comdat align 2 {
  %3 = alloca ptr, align 8
  %4 = alloca i64, align 8
  store ptr %0, ptr %3, align 8, !tbaa !38
  store i64 %1, ptr %4, align 8, !tbaa !36
  %5 = load ptr, ptr %3, align 8
  %6 = getelementptr inbounds nuw %"class.casadi::MXNode", ptr %5, i32 0, i32 2
  %7 = load i64, ptr %4, align 8, !tbaa !36
  %8 = call noundef nonnull align 8 dereferenceable(8) ptr @_ZNKSt6vectorIN6casadi2MXESaIS1_EE2atEm(ptr noundef nonnull align 8 dereferenceable(24) %6, i64 noundef %7)
  ret ptr %8
}

; Function Attrs: mustprogress uwtable
define noundef i32 @_ZNK6casadi4MMin4evalEPPKdPPdPxS4_(ptr noundef nonnull align 8 dereferenceable(64) %0, ptr noundef %1, ptr noundef %2, ptr noundef %3, ptr noundef %4) unnamed_addr #4 align 2 {
  %6 = alloca i32, align 4
  %7 = alloca ptr, align 8
  %8 = alloca ptr, align 8
  %9 = alloca ptr, align 8
  %10 = alloca ptr, align 8
  %11 = alloca ptr, align 8
  store ptr %0, ptr %7, align 8, !tbaa !3
  store ptr %1, ptr %8, align 8, !tbaa !28
  store ptr %2, ptr %9, align 8, !tbaa !28
  store ptr %3, ptr %10, align 8, !tbaa !30
  store ptr %4, ptr %11, align 8, !tbaa !32
  %12 = load ptr, ptr %7, align 8
  %13 = load ptr, ptr %9, align 8, !tbaa !28
  %14 = getelementptr inbounds ptr, ptr %13, i64 0
  %15 = load ptr, ptr %14, align 8, !tbaa !32
  %16 = icmp ne ptr %15, null
  br i1 %16, label %18, label %17

17:                                               ; preds = %5
  store i32 0, ptr %6, align 4
  br label %32

18:                                               ; preds = %5
  %19 = load ptr, ptr %8, align 8, !tbaa !28
  %20 = getelementptr inbounds ptr, ptr %19, i64 0
  %21 = load ptr, ptr %20, align 8, !tbaa !32
  %22 = call noundef nonnull align 8 dereferenceable(8) ptr @_ZNK6casadi6MXNode3depEx(ptr noundef nonnull align 8 dereferenceable(64) %12, i64 noundef 0)
  %23 = call noundef i64 @_ZNK6casadi13GenericMatrixINS_2MXEE3nnzEv(ptr noundef nonnull align 1 dereferenceable(1) %22)
  %24 = call noundef nonnull align 8 dereferenceable(8) ptr @_ZNK6casadi6MXNode3depEx(ptr noundef nonnull align 8 dereferenceable(64) %12, i64 noundef 0)
  %25 = call noundef zeroext i1 @_ZNK6casadi13GenericMatrixINS_2MXEE8is_denseEv(ptr noundef nonnull align 1 dereferenceable(1) %24)
  %26 = zext i1 %25 to i64
  %27 = call noundef double @_ZN6casadi11casadi_mminIdEET_PKS1_xx(ptr noundef %21, i64 noundef %23, i64 noundef %26)
  %28 = load ptr, ptr %9, align 8, !tbaa !28
  %29 = getelementptr inbounds ptr, ptr %28, i64 0
  %30 = load ptr, ptr %29, align 8, !tbaa !32
  %31 = getelementptr inbounds double, ptr %30, i64 0
  store double %27, ptr %31, align 8, !tbaa !34
  store i32 0, ptr %6, align 4
  br label %32

32:                                               ; preds = %18, %17
  %33 = load i32, ptr %6, align 4
  ret i32 %33
}