; Function Attrs: mustprogress uwtable
define noundef i32 @_ZNK6casadi4MMin4evalEPPKdPPdPxS4_(ptr noundef nonnull readonly align 8 captures(none) dereferenceable(64) %0, ptr noundef readonly captures(none) %1, ptr noundef readonly captures(none) %2, ptr readnone captures(none) %3, ptr readnone captures(none) %4) unnamed_addr #3 align 2 {
  %6 = load ptr, ptr %2, align 8, !tbaa !26
  %.not = icmp eq ptr %6, null
  br i1 %.not, label %28, label %7

7:                                                ; preds = %5
  %8 = load ptr, ptr %1, align 8, !tbaa !26
  %9 = getelementptr inbounds nuw i8, ptr %0, i64 32
  %10 = getelementptr inbounds nuw i8, ptr %0, i64 40
  %11 = load ptr, ptr %10, align 8, !tbaa !28
  %12 = load ptr, ptr %9, align 8, !tbaa !31
  %.not.i.i.i.not = icmp eq ptr %11, %12
  br i1 %.not.i.i.i.not, label %13, label %_ZNK6casadi6MXNode3depEx.exit

13:                                               ; preds = %7
  tail call void (ptr, ...) @_ZSt24__throw_out_of_range_fmtPKcz(ptr noundef nonnull @.str.5, i64 noundef 0, i64 noundef 0) #22
  unreachable

_ZNK6casadi6MXNode3depEx.exit:                    ; preds = %7
  %14 = tail call noundef nonnull align 8 dereferenceable(8) ptr @_ZNK6casadi2MX8sparsityEv(ptr noundef nonnull align 8 dereferenceable(8) %12)
  %15 = tail call noundef i64 @_ZNK6casadi8Sparsity3nnzEv(ptr noundef nonnull align 8 dereferenceable(8) %14)
  %16 = load ptr, ptr %10, align 8, !tbaa !28
  %17 = load ptr, ptr %9, align 8, !tbaa !31
  %.not.i.i.i4.not = icmp eq ptr %16, %17
  br i1 %.not.i.i.i4.not, label %18, label %_ZNK6casadi6MXNode3depEx.exit5

18:                                               ; preds = %_ZNK6casadi6MXNode3depEx.exit
  tail call void (ptr, ...) @_ZSt24__throw_out_of_range_fmtPKcz(ptr noundef nonnull @.str.5, i64 noundef 0, i64 noundef 0) #22
  unreachable

_ZNK6casadi6MXNode3depEx.exit5:                   ; preds = %_ZNK6casadi6MXNode3depEx.exit
  %19 = tail call noundef nonnull align 8 dereferenceable(8) ptr @_ZNK6casadi2MX8sparsityEv(ptr noundef nonnull align 8 dereferenceable(8) %17)
  %20 = tail call noundef zeroext i1 @_ZNK6casadi8Sparsity8is_denseEv(ptr noundef nonnull align 8 dereferenceable(8) %19)
  %21 = select i1 %20, double 0x7FF0000000000000, double 0.000000e+00
  %.not7.i = icmp ne ptr %8, null
  %22 = icmp sgt i64 %15, 0
  %or.cond.i = and i1 %.not7.i, %22
  br i1 %or.cond.i, label %.lr.ph.i.i, label %_ZN6casadi11casadi_mminIdEET_PKS1_xx.exit

.lr.ph.i.i:                                       ; preds = %_ZNK6casadi6MXNode3depEx.exit5, %.lr.ph.i.i
  %.08.i.i = phi i64 [ %26, %.lr.ph.i.i ], [ 0, %_ZNK6casadi6MXNode3depEx.exit5 ]
  %.067.i.i = phi double [ %25, %.lr.ph.i.i ], [ %21, %_ZNK6casadi6MXNode3depEx.exit5 ]
  %23 = getelementptr inbounds nuw double, ptr %8, i64 %.08.i.i
  %24 = load double, ptr %23, align 8, !tbaa !32
  %25 = tail call double @llvm.minnum.f64(double %.067.i.i, double %24)
  %26 = add nuw nsw i64 %.08.i.i, 1
  %exitcond.not.i.i = icmp eq i64 %26, %15
  br i1 %exitcond.not.i.i, label %_ZN6casadi11casadi_mminIdEET_PKS1_xx.exit, label %.lr.ph.i.i, !llvm.loop !34

_ZN6casadi11casadi_mminIdEET_PKS1_xx.exit:        ; preds = %.lr.ph.i.i, %_ZNK6casadi6MXNode3depEx.exit5
  %.0.i = phi double [ %21, %_ZNK6casadi6MXNode3depEx.exit5 ], [ %25, %.lr.ph.i.i ]
  %27 = load ptr, ptr %2, align 8, !tbaa !26
  store double %.0.i, ptr %27, align 8, !tbaa !32
  br label %28

28:                                               ; preds = %5, %_ZN6casadi11casadi_mminIdEET_PKS1_xx.exit
  ret i32 0
}